(dp0
S'362616'
p1
(lp2
(lp3
I1
aI351
aasS'362617'
p4
(lp5
(lp6
I1
aI244
aasS'362614'
p7
(lp8
(lp9
I1
aI153
aasS'362615'
p10
(lp11
(lp12
I1
aI149
aasS'357766'
p13
(lp14
(lp15
I10
aI124
aasS'357482'
p16
(lp17
(lp18
I1
aI5
aa(lp19
I21
aI220
aasS'362618'
p20
(lp21
(lp22
I1
aI274
aasS'355863'
p23
(lp24
(lp25
I1
aI14
aasS'355862'
p26
(lp27
(lp28
I121
aI133
aasS'361239'
p29
(lp30
(lp31
I35
aI1090
aasS'362757'
p32
(lp33
(lp34
I32
aI93
aasS'355456'
p35
(lp36
(lp37
I1
aI501
aasS'355454'
p38
(lp39
(lp40
I38
aI118
aasS'355455'
p41
(lp42
(lp43
I1
aI40
aasS'360327'
p44
(lp45
(lp46
I32
aI383
aasS'356969'
p47
(lp48
(lp49
I1
aI236
aasS'356968'
p50
(lp51
(lp52
I81
aI252
aasS'356323'
p53
(lp54
(lp55
I1
aI67
aa(lp56
I69
aI650
aasS'356322'
p57
(lp58
(lp59
I1
aI19
aasS'357812'
p60
(lp61
(lp62
I1
aI50
aasS'357813'
p63
(lp64
(lp65
I1
aI293
aasS'357814'
p66
(lp67
(lp68
I1
aI212
aasS'357815'
p69
(lp70
(lp71
I1
aI944
aasS'357610'
p72
(lp73
(lp74
I63
aI253
aasS'360438'
p75
(lp76
(lp77
I1
aI6
aasS'357611'
p78
(lp79
(lp80
I1
aI412
aasS'360432'
p81
(lp82
(lp83
I1
aI28
aasS'357268'
p84
(lp85
(lp86
I70
aI143
aasS'360435'
p87
(lp88
(lp89
I1
aI37
aa(lp90
I43
aI53
aasS'360437'
p91
(lp92
(lp93
I1
aI40
aasS'356998'
p94
(lp95
(lp96
I1
aI5
aasS'356999'
p97
(lp98
(lp99
I1
aI58
aasS'361994'
p100
(lp101
(lp102
I1
aI116
aasS'361990'
p103
(lp104
(lp105
I1
aI204
aasS'361971'
p106
(lp107
(lp108
I38
aI731
aa(lp109
I733
aI2381
aasS'361110'
p110
(lp111
(lp112
I1
aI197
aasS'361195'
p113
(lp114
(lp115
I1
aI20
aasS'361197'
p116
(lp117
(lp118
I1
aI960
aa(lp119
I991
aI2177
aasS'359595'
p120
(lp121
(lp122
I17
aI289
aasS'361193'
p123
(lp124
(lp125
I1
aI29
aasS'361054'
p126
(lp127
(lp128
I1
aI461
aasS'361050'
p129
(lp130
(lp131
I1
aI10
aasS'361052'
p132
(lp133
(lp134
I1
aI65
aasS'362720'
p135
(lp136
(lp137
I52
aI949
aasS'362727'
p138
(lp139
(lp140
I4
aI7
aasS'355679'
p141
(lp142
(lp143
I27
aI85
aasS'356071'
p144
(lp145
(lp146
I37
aI191
aasS'362728'
p147
(lp148
(lp149
I1
aI388
aasS'356075'
p150
(lp151
(lp152
I1
aI125
aasS'360393'
p153
(lp154
(lp155
I1
aI124
aasS'356077'
p156
(lp157
(lp158
I1
aI472
aasS'356076'
p159
(lp160
(lp161
I1
aI153
aasS'362154'
p162
(lp163
(lp164
I1
aI784
aasS'360392'
p165
(lp166
(lp167
I1
aI61
aasS'362153'
p168
(lp169
(lp170
I1
aI140
aasS'361580'
p171
(lp172
(lp173
I1
aI422
aasS'362653'
p174
(lp175
(lp176
I40
aI305
aasS'362159'
p177
(lp178
(lp179
I29
aI35
aasS'362657'
p180
(lp181
(lp182
I1
aI198
aasS'362654'
p183
(lp184
(lp185
I1
aI26
aasS'362655'
p186
(lp187
(lp188
I1
aI140
aa(lp189
I143
aI144
aa(lp190
I148
aI338
aasS'357079'
p191
(lp192
(lp193
I1
aI22
aasS'355559'
p194
(lp195
(lp196
I1
aI162
aasS'355558'
p197
(lp198
(lp199
I122
aI409
aasS'355418'
p200
(lp201
(lp202
I1
aI41
aasS'355419'
p203
(lp204
(lp205
I1
aI98
aasS'361989'
p206
(lp207
(lp208
I37
aI112
aa(lp209
I114
aI151
aasS'361475'
p210
(lp211
(lp212
I37
aI614
aa(lp213
I617
aI836
aa(lp214
I838
aI838
aa(lp215
I840
aI1121
aa(lp216
I1124
aI1273
aasS'357735'
p217
(lp218
(lp219
I1
aI387
aa(lp220
I389
aI821
aa(lp221
I823
aI947
aa(lp222
I949
aI1126
aasS'357734'
p223
(lp224
(lp225
I1
aI300
aasS'357732'
p226
(lp227
(lp228
I30
aI157
aasS'361579'
p229
(lp230
(lp231
I43
aI905
aasS'357106'
p232
(lp233
(lp234
I1
aI60
aasS'361573'
p235
(lp236
(lp237
I1
aI305
aasS'357104'
p238
(lp239
(lp240
I1
aI4
aasS'357102'
p241
(lp242
(lp243
I1
aI13
aa(lp244
I43
aI134
aasS'357101'
p245
(lp246
(lp247
I54
aI103
aasS'360874'
p248
(lp249
(lp250
I31
aI82
aasS'360876'
p251
(lp252
(lp253
I1
aI341
aasS'356815'
p254
(lp255
(lp256
I1
aI54
aa(lp257
I176
aI219
aasS'356814'
p258
(lp259
(lp260
I1
aI305
aa(lp261
I307
aI309
aa(lp262
I311
aI366
aa(lp263
I368
aI672
aasS'356813'
p264
(lp265
(lp266
I1
aI54
aasS'356812'
p267
(lp268
(lp269
I1
aI107
aasS'356811'
p270
(lp271
(lp272
I1
aI44
aasS'356810'
p273
(lp274
(lp275
I44
aI163
aasS'355933'
p276
(lp277
(lp278
I75
aI448
aasS'356956'
p279
(lp280
(lp281
I1
aI109
aasS'356954'
p282
(lp283
(lp284
I1
aI364
aasS'356955'
p285
(lp286
(lp287
I1
aI380
aasS'356951'
p288
(lp289
(lp290
I1
aI274
aasS'357781'
p291
(lp292
(lp293
I1
aI10
aasS'361400'
p294
(lp295
(lp296
I41
aI496
aasS'359661'
p297
(lp298
(lp299
I42
aI233
aasS'356433'
p300
(lp301
(lp302
I1
aI310
aasS'356435'
p303
(lp304
(lp305
I1
aI3
aa(lp306
I8
aI8
aasS'356434'
p307
(lp308
(lp309
I1
aI13
aasS'360019'
p310
(lp311
(lp312
I1
aI153
aa(lp313
I155
aI1489
aasS'357898'
p314
(lp315
(lp316
I1
aI313
aasS'360017'
p317
(lp318
(lp319
I42
aI81
aasS'356135'
p320
(lp321
(lp322
I46
aI71
aasS'357550'
p323
(lp324
(lp325
I1
aI36
aasS'359806'
p326
(lp327
(lp328
I42
aI410
aasS'359809'
p329
(lp330
(lp331
I1
aI43
aasS'359808'
p332
(lp333
(lp334
I1
aI46
aasS'355988'
p335
(lp336
(lp337
I43
aI80
aa(lp338
I85
aI90
aasS'359718'
p339
(lp340
(lp341
I1
aI199
aa(lp342
I202
aI368
aasS'361333'
p343
(lp344
(lp345
I36
aI337
aasS'362058'
p346
(lp347
(lp348
I39
aI209
aasS'362059'
p349
(lp350
(lp351
I1
aI63
aasS'357331'
p352
(lp353
(lp354
I1
aI23
aasS'360127'
p355
(lp356
(lp357
I1
aI201
aasS'357333'
p358
(lp359
(lp360
I1
aI207
aasS'357332'
p361
(lp362
(lp363
I1
aI430
aasS'360795'
p364
(lp365
(lp366
I1
aI395
aasS'360794'
p367
(lp368
(lp369
I37
aI713
aasS'360797'
p370
(lp371
(lp372
I1
aI5
aasS'360128'
p373
(lp374
(lp375
I1
aI163
aasS'360490'
p376
(lp377
(lp378
I8
aI936
aa(lp379
I940
aI1187
aasS'360491'
p380
(lp381
(lp382
I3
aI157
aa(lp383
I159
aI179
aasS'356004'
p384
(lp385
(lp386
I1
aI19
aasS'356005'
p387
(lp388
(lp389
I1
aI187
aasS'357777'
p390
(lp391
(lp392
I1
aI85
aasS'357779'
p393
(lp394
(lp395
I1
aI74
aasS'357778'
p396
(lp397
(lp398
I1
aI359
aasS'362597'
p399
(lp400
(lp401
I1
aI139
aasS'355892'
p402
(lp403
(lp404
I14
aI197
aasS'355445'
p405
(lp406
(lp407
I1
aI242
aasS'355444'
p408
(lp409
(lp410
I1
aI153
aasS'355443'
p411
(lp412
(lp413
I1
aI240
aasS'355442'
p414
(lp415
(lp416
I1
aI22
aasS'362696'
p417
(lp418
(lp419
I1
aI1112
aa(lp420
I1114
aI1120
aa(lp421
I1122
aI1124
aa(lp422
I1126
aI1128
aa(lp423
I1130
aI1132
aa(lp424
I1134
aI1140
aa(lp425
I1142
aI1144
aa(lp426
I1146
aI1148
aa(lp427
I1150
aI1152
aa(lp428
I1154
aI1720
aasS'362695'
p429
(lp430
(lp431
I39
aI372
aasS'356919'
p432
(lp433
(lp434
I29
aI116
aasS'360992'
p435
(lp436
(lp437
I1
aI99
aasS'360991'
p438
(lp439
(lp440
I41
aI270
aasS'361443'
p441
(lp442
(lp443
I40
aI2313
aasS'356316'
p444
(lp445
(lp446
I45
aI185
aasS'362439'
p447
(lp448
(lp449
I8
aI34
aa(lp450
I249
aI1595
aasS'357809'
p451
(lp452
(lp453
I1
aI41
aasS'357808'
p454
(lp455
(lp456
I1
aI17
aasS'357807'
p457
(lp458
(lp459
I1
aI244
aasS'357806'
p460
(lp461
(lp462
I1
aI56
aasS'357805'
p463
(lp464
(lp465
I1
aI88
aasS'357804'
p466
(lp467
(lp468
I1
aI23
aasS'357803'
p469
(lp470
(lp471
I1
aI153
aasS'357802'
p472
(lp473
(lp474
I43
aI206
aasS'360428'
p475
(lp476
(lp477
I50
aI123
aasS'356824'
p478
(lp479
(lp480
I1
aI66
aasS'359612'
p481
(lp482
(lp483
I1
aI12
aasS'359751'
p484
(lp485
(lp486
I15
aI1007
aasS'359750'
p487
(lp488
(lp489
I52
aI186
aasS'355942'
p490
(lp491
(lp492
I24
aI189
aa(lp493
I193
aI213
aasS'356383'
p494
(lp495
(lp496
I1
aI33
aasS'357899'
p497
(lp498
(lp499
I1
aI637
aasS'356381'
p500
(lp501
(lp502
I1
aI1193
aasS'356386'
p503
(lp504
(lp505
I1
aI122
aasS'356385'
p506
(lp507
(lp508
I1
aI30
aasS'355871'
p509
(lp510
(lp511
I1
aI5
aasS'356446'
p512
(lp513
(lp514
I10
aI623
aasS'361188'
p515
(lp516
(lp517
I46
aI186
aasS'356043'
p518
(lp519
(lp520
I1
aI65
aasS'359870'
p521
(lp522
(lp523
I2
aI7
aasS'359871'
p524
(lp525
(lp526
I1
aI228
aasS'356615'
p527
(lp528
(lp529
I1
aI1297
aasS'356614'
p530
(lp531
(lp532
I1
aI10
aa(lp533
I16
aI19
aa(lp534
I27
aI62
aasS'362163'
p535
(lp536
(lp537
I1
aI65
aasS'361240'
p538
(lp539
(lp540
I1
aI1015
aasS'362166'
p541
(lp542
(lp543
I1
aI331
aasS'362167'
p544
(lp545
(lp546
I1
aI646
aasS'356619'
p547
(lp548
(lp549
I1
aI173
aasS'360761'
p550
(lp551
(lp552
I34
aI190
aasS'361366'
p553
(lp554
(lp555
I1
aI201
aasS'361365'
p556
(lp557
(lp558
I1
aI489
aasS'361363'
p559
(lp560
(lp561
I1
aI27
aasS'361362'
p562
(lp563
(lp564
I1
aI31
aasS'361361'
p565
(lp566
(lp567
I60
aI105
aasS'362161'
p568
(lp569
(lp570
I1
aI120
aasS'360892'
p571
(lp572
(lp573
I1
aI296
aasS'360890'
p574
(lp575
(lp576
I1
aI216
aa(lp577
I219
aI506
aasS'355989'
p578
(lp579
(lp580
I1
aI24
aasS'357700'
p581
(lp582
(lp583
I1
aI757
aasS'357701'
p584
(lp585
(lp586
I1
aI310
aasS'357705'
p587
(lp588
(lp589
I1
aI202
aasS'357706'
p590
(lp591
(lp592
I1
aI161
aasS'361569'
p593
(lp594
(lp595
I35
aI598
aasS'360948'
p596
(lp597
(lp598
I1
aI119
aasS'357698'
p599
(lp600
(lp601
I1
aI63
aasS'360946'
p602
(lp603
(lp604
I1
aI364
aasS'360941'
p605
(lp606
(lp607
I1
aI72
aasS'360942'
p608
(lp609
(lp610
I1
aI344
aasS'357112'
p611
(lp612
(lp613
I1
aI519
aasS'360116'
p614
(lp615
(lp616
I77
aI432
aasS'360460'
p617
(lp618
(lp619
I1
aI1077
aasS'356949'
p620
(lp621
(lp622
I1
aI94
aasS'356948'
p623
(lp624
(lp625
I1
aI88
aasS'356947'
p626
(lp627
(lp628
I1
aI350
aasS'356946'
p629
(lp630
(lp631
I1
aI129
aasS'361417'
p632
(lp633
(lp634
I38
aI1659
aasS'361020'
p635
(lp636
(lp637
I41
aI439
aasS'360413'
p638
(lp639
(lp640
I37
aI126
aasS'360391'
p641
(lp642
(lp643
I1
aI4
aasS'360390'
p644
(lp645
(lp646
I5
aI36
aa(lp647
I38
aI76
aasS'355999'
p648
(lp649
(lp650
I1
aI9
aasS'355998'
p651
(lp652
(lp653
I1
aI35
aasS'360090'
p654
(lp655
(lp656
I1
aI794
aasS'356531'
p657
(lp658
(lp659
I1
aI56
aasS'361320'
p660
(lp661
(lp662
I1
aI382
aasS'359998'
p663
(lp664
(lp665
I24
aI757
aa(lp666
I759
aI759
aa(lp667
I761
aI785
aa(lp668
I787
aI1918
aasS'361280'
p669
(lp670
(lp671
I1
aI267
aasS'361283'
p672
(lp673
(lp674
I1
aI26
aasS'361284'
p675
(lp676
(lp677
I1
aI36
aasS'356569'
p678
(lp679
(lp680
I1
aI251
aasS'360131'
p681
(lp682
(lp683
I1
aI378
aasS'360130'
p684
(lp685
(lp686
I87
aI91
aasS'360126'
p687
(lp688
(lp689
I1
aI35
aa(lp690
I37
aI370
aasS'360486'
p691
(lp692
(lp693
I45
aI322
aasS'357330'
p694
(lp695
(lp696
I1
aI157
aasS'360125'
p697
(lp698
(lp699
I132
aI195
aa(lp700
I200
aI262
aa(lp701
I264
aI324
aasS'359903'
p702
(lp703
(lp704
I1
aI12
aasS'356970'
p705
(lp706
(lp707
I1
aI366
aasS'360737'
p708
(lp709
(lp710
I10
aI27
aasS'360820'
p711
(lp712
(lp713
I1
aI885
aasS'360826'
p714
(lp715
(lp716
I1
aI91
aa(lp717
I93
aI119
aasS'360825'
p718
(lp719
(lp720
I1
aI358
aasS'362437'
p721
(lp722
(lp723
I1
aI11
aa(lp724
I73
aI92
aasS'360225'
p725
(lp726
(lp727
I1
aI169
aa(lp728
I171
aI356
aasS'360224'
p729
(lp730
(lp731
I43
aI259
aasS'356908'
p732
(lp733
(lp734
I1
aI26
aasS'359699'
p735
(lp736
(lp737
I28
aI1883
aasS'359691'
p738
(lp739
(lp740
I19
aI139
aasS'359693'
p741
(lp742
(lp743
I1
aI604
aasS'359694'
p744
(lp745
(lp746
I1
aI1080
aasS'361512'
p747
(lp748
(lp749
I36
aI849
aa(lp750
I851
aI1573
aasS'357699'
p751
(lp752
(lp753
I1
aI30
aasS'357696'
p754
(lp755
(lp756
I31
aI319
aa(lp757
I341
aI410
aasS'357697'
p758
(lp759
(lp760
I1
aI39
aasS'360919'
p761
(lp762
(lp763
I39
aI836
aasS'355374'
p764
(lp765
(lp766
I59
aI84
aasS'360856'
p767
(lp768
(lp769
I42
aI97
aasS'357081'
p770
(lp771
(lp772
I1
aI759
aasS'357080'
p773
(lp774
(lp775
I1
aI616
aasS'361108'
p776
(lp777
(lp778
I1
aI7
aasS'360458'
p779
(lp780
(lp781
I45
aI215
aa(lp782
I234
aI246
aasS'360459'
p783
(lp784
(lp785
I1
aI1332
aasS'361107'
p786
(lp787
(lp788
I1
aI156
aasS'361106'
p789
(lp790
(lp791
I1
aI31
aasS'361105'
p792
(lp793
(lp794
I41
aI448
aasS'359764'
p795
(lp796
(lp797
I28
aI1111
aasS'360295'
p798
(lp799
(lp800
I35
aI771
aa(lp801
I774
aI1475
aasS'360296'
p802
(lp803
(lp804
I1
aI519
aasS'359762'
p805
(lp806
(lp807
I44
aI266
aasS'359763'
p808
(lp809
(lp810
I1
aI410
aa(lp811
I412
aI459
aasS'356580'
p812
(lp813
(lp814
I1
aI51
aasS'356578'
p815
(lp816
(lp817
I1
aI865
aasS'359609'
p818
(lp819
(lp820
I1
aI25
aasS'357447'
p821
(lp822
(lp823
I40
aI50
aasS'356576'
p824
(lp825
(lp826
I58
aI240
aasS'356570'
p827
(lp828
(lp829
I1
aI98
aasS'359602'
p830
(lp831
(lp832
I1
aI74
aasS'357441'
p833
(lp834
(lp835
I1
aI83
aasS'357440'
p836
(lp837
(lp838
I1
aI354
aasS'356378'
p839
(lp840
(lp841
I8
aI208
aa(lp842
I210
aI219
aa(lp843
I221
aI304
aasS'356375'
p844
(lp845
(lp846
I35
aI77
aa(lp847
I101
aI125
aasS'356371'
p848
(lp849
(lp850
I41
aI50
aa(lp851
I67
aI72
aasS'359899'
p852
(lp853
(lp854
I19
aI305
aasS'357900'
p855
(lp856
(lp857
I1
aI516
aasS'361957'
p858
(lp859
(lp860
I1
aI1163
aasS'356309'
p861
(lp862
(lp863
I61
aI184
aasS'360075'
p864
(lp865
(lp866
I20
aI429
aa(lp867
I462
aI809
aasS'360895'
p868
(lp869
(lp870
I1
aI700
aasS'362760'
p871
(lp872
(lp873
I1
aI728
aasS'362091'
p874
(lp875
(lp876
I1
aI1418
aasS'361318'
p877
(lp878
(lp879
I34
aI490
aasS'361319'
p880
(lp881
(lp882
I1
aI162
aasS'355435'
p883
(lp884
(lp885
I42
aI84
aasS'361083'
p886
(lp887
(lp888
I6
aI59
aasS'360889'
p889
(lp890
(lp891
I1
aI36
aasS'360888'
p892
(lp893
(lp894
I1
aI289
aasS'360887'
p895
(lp896
(lp897
I12
aI134
aasS'355870'
p898
(lp899
(lp900
I31
aI67
aasS'361223'
p901
(lp902
(lp903
I36
aI730
aasS'355872'
p904
(lp905
(lp906
I1
aI738
aa(lp907
I758
aI995
aa(lp908
I997
aI1217
aasS'360951'
p909
(lp910
(lp911
I1
aI190
aasS'360950'
p912
(lp913
(lp914
I1
aI179
aa(lp915
I181
aI468
aa(lp916
I470
aI718
aasS'356074'
p917
(lp918
(lp919
I1
aI26
aasS'360945'
p920
(lp921
(lp922
I1
aI91
aasS'359597'
p923
(lp924
(lp925
I1
aI94
aasS'357401'
p926
(lp927
(lp928
I48
aI664
aasS'357406'
p929
(lp930
(lp931
I50
aI174
aasS'355913'
p932
(lp933
(lp934
I1
aI106
aasS'355912'
p935
(lp936
(lp937
I43
aI200
aasS'360927'
p938
(lp939
(lp940
I37
aI331
aa(lp941
I333
aI581
aa(lp942
I583
aI1930
aasS'360920'
p943
(lp944
(lp945
I1
aI4
aasS'360921'
p946
(lp947
(lp948
I1
aI218
aasS'357271'
p949
(lp950
(lp951
I1
aI20
aa(lp952
I22
aI1570
aasS'356523'
p953
(lp954
(lp955
I32
aI410
aa(lp956
I412
aI898
aasS'360400'
p957
(lp958
(lp959
I40
aI119
aasS'357472'
p960
(lp961
(lp962
I34
aI60
aasS'357478'
p963
(lp964
(lp965
I43
aI50
aasS'357479'
p966
(lp967
(lp968
I1
aI1046
aasS'361044'
p969
(lp970
(lp971
I42
aI166
aasS'361045'
p972
(lp973
(lp974
I1
aI322
aa(lp975
I325
aI947
aasS'361272'
p976
(lp977
(lp978
I1
aI125
aasS'355768'
p979
(lp980
(lp981
I82
aI126
aasS'355769'
p982
(lp983
(lp984
I1
aI541
aasS'355680'
p985
(lp986
(lp987
I1
aI1651
aasS'362758'
p988
(lp989
(lp990
I1
aI205
aasS'357612'
p991
(lp992
(lp993
I1
aI736
aasS'357613'
p994
(lp995
(lp996
I1
aI256
aasS'357759'
p997
(lp998
(lp999
I1
aI70
aasS'357758'
p1000
(lp1001
(lp1002
I1
aI85
aasS'362698'
p1003
(lp1004
(lp1005
I1
aI374
aasS'357757'
p1006
(lp1007
(lp1008
I1
aI9
aasS'357756'
p1009
(lp1010
(lp1011
I1
aI425
aasS'362148'
p1012
(lp1013
(lp1014
I39
aI758
aasS'357754'
p1015
(lp1016
(lp1017
I29
aI145
aasS'357001'
p1018
(lp1019
(lp1020
I1
aI183
aasS'357000'
p1021
(lp1022
(lp1023
I1
aI50
aasS'361297'
p1024
(lp1025
(lp1026
I38
aI970
aasS'359686'
p1027
(lp1028
(lp1029
I1
aI934
aasS'359685'
p1030
(lp1031
(lp1032
I1
aI132
aasS'356937'
p1033
(lp1034
(lp1035
I20
aI138
aasS'357442'
p1036
(lp1037
(lp1038
I1
aI1373
aasS'359569'
p1039
(lp1040
(lp1041
I1
aI83
aasS'361468'
p1042
(lp1043
(lp1044
I3
aI1883
aasS'361303'
p1045
(lp1046
(lp1047
I36
aI2275
aasS'357720'
p1048
(lp1049
(lp1050
I32
aI92
aasS'357688'
p1051
(lp1052
(lp1053
I1
aI380
aasS'355381'
p1054
(lp1055
(lp1056
I1
aI358
aasS'355921'
p1057
(lp1058
(lp1059
I38
aI442
aasS'359776'
p1060
(lp1061
(lp1062
I104
aI432
aasS'357538'
p1063
(lp1064
(lp1065
I39
aI63
aasS'359575'
p1066
(lp1067
(lp1068
I1
aI13
aa(lp1069
I15
aI24
aa(lp1070
I26
aI35
aa(lp1071
I37
aI46
aa(lp1072
I48
aI57
aa(lp1073
I59
aI68
aa(lp1074
I70
aI89
aasS'357438'
p1075
(lp1076
(lp1077
I35
aI230
aasS'356568'
p1078
(lp1079
(lp1080
I42
aI64
aasS'359571'
p1081
(lp1082
(lp1083
I1
aI4
aa(lp1084
I7
aI28
aa(lp1085
I30
aI39
aa(lp1086
I41
aI50
aa(lp1087
I52
aI61
aa(lp1088
I63
aI72
aa(lp1089
I74
aI83
aa(lp1090
I85
aI94
aa(lp1091
I96
aI105
aa(lp1092
I107
aI116
aa(lp1093
I118
aI127
aa(lp1094
I129
aI138
aa(lp1095
I140
aI149
aa(lp1096
I151
aI160
aa(lp1097
I162
aI169
aasS'356563'
p1098
(lp1099
(lp1100
I36
aI113
aa(lp1101
I117
aI164
aa(lp1102
I168
aI177
aa(lp1103
I181
aI191
aa(lp1104
I193
aI194
aa(lp1105
I199
aI343
aasS'356428'
p1106
(lp1107
(lp1108
I1
aI300
aasS'360141'
p1109
(lp1110
(lp1111
I25
aI775
aasS'356582'
p1112
(lp1113
(lp1114
I7
aI104
aasS'356426'
p1115
(lp1116
(lp1117
I39
aI60
aasS'359887'
p1118
(lp1119
(lp1120
I30
aI502
aasS'359812'
p1121
(lp1122
(lp1123
I1
aI227
aasS'359810'
p1124
(lp1125
(lp1126
I1
aI183
aasS'357542'
p1127
(lp1128
(lp1129
I1
aI11
aa(lp1130
I13
aI252
aasS'359814'
p1131
(lp1132
(lp1133
I1
aI366
aasS'362087'
p1134
(lp1135
(lp1136
I1
aI13
aa(lp1137
I15
aI146
aasS'362064'
p1138
(lp1139
(lp1140
I93
aI218
aa(lp1141
I220
aI508
aa(lp1142
I510
aI1067
aasS'362061'
p1143
(lp1144
(lp1145
I1
aI314
aasS'362060'
p1146
(lp1147
(lp1148
I1
aI83
aa(lp1149
I85
aI85
aasS'362063'
p1150
(lp1151
(lp1152
I1
aI70
aa(lp1153
I77
aI92
aasS'362062'
p1154
(lp1155
(lp1156
I1
aI207
aasS'362106'
p1157
(lp1158
(lp1159
I1
aI78
aasS'362107'
p1160
(lp1161
(lp1162
I1
aI785
aasS'362104'
p1163
(lp1164
(lp1165
I33
aI147
aasS'362105'
p1166
(lp1167
(lp1168
I1
aI179
aasS'357328'
p1169
(lp1170
(lp1171
I44
aI105
aasS'357329'
p1172
(lp1173
(lp1174
I1
aI668
aasS'361091'
p1175
(lp1176
(lp1177
I38
aI418
aasS'355429'
p1178
(lp1179
(lp1180
I42
aI89
aas.