(dp0
S'368723'
p1
(lp2
(lp3
I63
aI63
aa(lp4
I97
aI188
aasS'366829'
p5
(lp6
(lp7
I19
aI233
aasS'370406'
p8
(lp9
(lp10
I37
aI121
aa(lp11
I123
aI738
aa(lp12
I746
aI869
aasS'366821'
p13
(lp14
(lp15
I1
aI967
aasS'366820'
p16
(lp17
(lp18
I40
aI411
aasS'368333'
p19
(lp20
(lp21
I1
aI25
aasS'368332'
p22
(lp23
(lp24
I1
aI14
aasS'367619'
p25
(lp26
(lp27
I1
aI300
aa(lp28
I302
aI501
aa(lp29
I503
aI579
aasS'367618'
p30
(lp31
(lp32
I18
aI341
aasS'367615'
p33
(lp34
(lp35
I53
aI484
aasS'367758'
p36
(lp37
(lp38
I52
aI767
aasS'370093'
p39
(lp40
(lp41
I1
aI450
aasS'368548'
p42
(lp43
(lp44
I1
aI75
aa(lp45
I77
aI86
aa(lp46
I89
aI90
aa(lp47
I93
aI280
aa(lp48
I282
aI1044
aasS'367696'
p49
(lp50
(lp51
I1
aI856
aa(lp52
I858
aI1920
aasS'367691'
p53
(lp54
(lp55
I46
aI204
aasS'367910'
p56
(lp57
(lp58
I1
aI593
aasS'367699'
p59
(lp60
(lp61
I1
aI151
aasS'368546'
p62
(lp63
(lp64
I1
aI659
aasS'368547'
p65
(lp66
(lp67
I1
aI194
aa(lp68
I197
aI702
aasS'367112'
p69
(lp70
(lp71
I1
aI1438
aasS'370129'
p72
(lp73
(lp74
I42
aI123
aa(lp75
I125
aI552
aasS'367111'
p76
(lp77
(lp78
I51
aI338
aasS'366933'
p79
(lp80
(lp81
I55
aI1224
aasS'370340'
p82
(lp83
(lp84
I24
aI779
aasS'367232'
p85
(lp86
(lp87
I1
aI996
aasS'367231'
p88
(lp89
(lp90
I1
aI22
aasS'367230'
p91
(lp92
(lp93
I1
aI1
aasS'370307'
p94
(lp95
(lp96
I1
aI708
aasS'370354'
p97
(lp98
(lp99
I34
aI311
aasS'367234'
p100
(lp101
(lp102
I1
aI501
aasS'367742'
p103
(lp104
(lp105
I39
aI443
aasS'367229'
p106
(lp107
(lp108
I1
aI34
aasS'370497'
p109
(lp110
(lp111
I1
aI115
aa(lp112
I117
aI1419
aa(lp113
I1426
aI1436
aasS'370579'
p114
(lp115
(lp116
I33
aI113
aa(lp117
I120
aI123
aasS'367881'
p118
(lp119
(lp120
I14
aI152
aasS'367336'
p121
(lp122
(lp123
I1
aI169
aasS'367337'
p124
(lp125
(lp126
I1
aI1046
aasS'367334'
p127
(lp128
(lp129
I26
aI324
aasS'370717'
p130
(lp131
(lp132
I39
aI157
aasS'368229'
p133
(lp134
(lp135
I52
aI569
aasS'367908'
p136
(lp137
(lp138
I1
aI358
aasS'368343'
p139
(lp140
(lp141
I1
aI328
aasS'370097'
p142
(lp143
(lp144
I1
aI356
aasS'368223'
p145
(lp146
(lp147
I45
aI437
aa(lp148
I445
aI487
aasS'367902'
p149
(lp150
(lp151
I42
aI273
aasS'367905'
p152
(lp153
(lp154
I1
aI48
aasS'367904'
p155
(lp156
(lp157
I1
aI103
aasS'367907'
p158
(lp159
(lp160
I1
aI119
aasS'367906'
p161
(lp162
(lp163
I1
aI344
aasS'367100'
p164
(lp165
(lp166
I45
aI390
aasS'367103'
p167
(lp168
(lp169
I1
aI64
aasS'367102'
p170
(lp171
(lp172
I1
aI75
aasS'367104'
p173
(lp174
(lp175
I1
aI1082
aasS'370790'
p176
(lp177
(lp178
I54
aI76
aasS'368746'
p179
(lp180
(lp181
I39
aI77
aasS'369956'
p182
(lp183
(lp184
I37
aI1076
aasS'370772'
p185
(lp186
(lp187
I29
aI1247
aasS'370749'
p188
(lp189
(lp190
I49
aI173
aa(lp191
I175
aI483
aa(lp192
I485
aI966
aa(lp193
I968
aI1541
aasS'368423'
p194
(lp195
(lp196
I42
aI159
aa(lp197
I161
aI516
aasS'370172'
p198
(lp199
(lp200
I1
aI300
aasS'370357'
p201
(lp202
(lp203
I1
aI801
aasS'370175'
p204
(lp205
(lp206
I92
aI757
aa(lp207
I759
aI1785
aasS'368224'
p208
(lp209
(lp210
I1
aI57
aasS'368669'
p211
(lp212
(lp213
I42
aI410
aasS'367730'
p214
(lp215
(lp216
I48
aI562
aasS'367836'
p217
(lp218
(lp219
I48
aI588
aasS'367831'
p220
(lp221
(lp222
I53
aI504
aasS'370774'
p223
(lp224
(lp225
I1
aI159
aasS'368453'
p226
(lp227
(lp228
I1
aI5
aasS'368451'
p229
(lp230
(lp231
I1
aI144
aasS'368724'
p232
(lp233
(lp234
I1
aI1200
aasS'367838'
p235
(lp236
(lp237
I1
aI793
aasS'368454'
p238
(lp239
(lp240
I1
aI68
aa(lp241
I72
aI1168
aasS'367130'
p242
(lp243
(lp244
I1
aI2
aa(lp245
I6
aI9
aa(lp246
I13
aI126
aa(lp247
I135
aI167
aasS'367131'
p248
(lp249
(lp250
I1
aI149
aasS'370460'
p251
(lp252
(lp253
I8
aI123
aasS'367133'
p254
(lp255
(lp256
I1
aI275
aasS'367314'
p257
(lp258
(lp259
I1
aI20
aasS'367315'
p260
(lp261
(lp262
I1
aI893
aasS'370332'
p263
(lp264
(lp265
I1
aI144
aa(lp266
I146
aI1523
aa(lp267
I1525
aI1968
aasS'370560'
p268
(lp269
(lp270
I62
aI90
aa(lp271
I92
aI410
aasS'370776'
p272
(lp273
(lp274
I1
aI326
aasS'367312'
p275
(lp276
(lp277
I53
aI225
aa(lp278
I227
aI269
aasS'370775'
p279
(lp280
(lp281
I1
aI168
aasS'367406'
p282
(lp283
(lp284
I48
aI476
aasS'368489'
p285
(lp286
(lp287
I47
aI791
aa(lp288
I793
aI827
aa(lp289
I829
aI863
aa(lp290
I865
aI899
aa(lp291
I901
aI935
aa(lp292
I937
aI971
aa(lp293
I973
aI1007
aa(lp294
I1009
aI1043
aa(lp295
I1045
aI1079
aa(lp296
I1081
aI1280
aa(lp297
I1282
aI1380
aa(lp298
I1382
aI1581
aa(lp299
I1583
aI1595
aasS'367552'
p300
(lp301
(lp302
I49
aI59
aasS'367553'
p303
(lp304
(lp305
I1
aI644
aasS'367095'
p306
(lp307
(lp308
I1
aI564
aasS'367883'
p309
(lp310
(lp311
I1
aI1050
aasS'367884'
p312
(lp313
(lp314
I1
aI1011
aasS'367554'
p315
(lp316
(lp317
I1
aI312
aasS'370472'
p318
(lp319
(lp320
I1
aI32
aa(lp321
I34
aI43
aasS'368672'
p322
(lp323
(lp324
I1
aI866
aasS'368636'
p325
(lp326
(lp327
I51
aI819
aasS'367129'
p328
(lp329
(lp330
I1
aI3
aasS'367128'
p331
(lp332
(lp333
I1
aI2
aa(lp334
I6
aI6
aa(lp335
I11
aI12
aa(lp336
I14
aI15
aasS'366802'
p337
(lp338
(lp339
I1
aI22
aasS'366801'
p340
(lp341
(lp342
I1
aI429
aasS'368320'
p343
(lp344
(lp345
I1
aI285
aasS'367127'
p346
(lp347
(lp348
I18
aI350
aasS'368321'
p349
(lp350
(lp351
I1
aI337
aasS'368764'
p352
(lp353
(lp354
I1
aI1
aasS'367413'
p355
(lp356
(lp357
I68
aI448
aa(lp358
I450
aI467
aa(lp359
I469
aI746
aa(lp360
I748
aI750
aa(lp361
I752
aI898
aa(lp362
I900
aI1340
aa(lp363
I1342
aI1367
aasS'367416'
p364
(lp365
(lp366
I1
aI55
aasS'367415'
p367
(lp368
(lp369
I1
aI97
aasS'367260'
p370
(lp371
(lp372
I52
aI69
aa(lp373
I72
aI240
aasS'367262'
p374
(lp375
(lp376
I1
aI42
aa(lp377
I49
aI119
aa(lp378
I123
aI271
aasS'367263'
p379
(lp380
(lp381
I10
aI21
aasS'367264'
p382
(lp383
(lp384
I1
aI847
aasS'367267'
p385
(lp386
(lp387
I45
aI322
aasS'367269'
p388
(lp389
(lp390
I1
aI33
aasS'368749'
p391
(lp392
(lp393
I1
aI169
aasS'367790'
p394
(lp395
(lp396
I1
aI160
aasS'368822'
p397
(lp398
(lp399
I45
aI330
aa(lp400
I332
aI908
aa(lp401
I910
aI991
aasS'368823'
p402
(lp403
(lp404
I3
aI35
aasS'369927'
p405
(lp406
(lp407
I37
aI376
aasS'367228'
p408
(lp409
(lp410
I55
aI280
aa(lp411
I285
aI287
aa(lp412
I292
aI294
aa(lp413
I298
aI304
aasS'370169'
p414
(lp415
(lp416
I46
aI454
aa(lp417
I456
aI490
aa(lp418
I492
aI526
aa(lp419
I528
aI562
aa(lp420
I564
aI598
aa(lp421
I600
aI935
aa(lp422
I1002
aI1014
aa(lp423
I1016
aI1019
aa(lp424
I1021
aI1033
aa(lp425
I1035
aI1449
aasS'368382'
p426
(lp427
(lp428
I37
aI792
aasS'370667'
p429
(lp430
(lp431
I1
aI28
aa(lp432
I30
aI102
aasS'368384'
p433
(lp434
(lp435
I1
aI44
aasS'367665'
p436
(lp437
(lp438
I1
aI271
aasS'367666'
p439
(lp440
(lp441
I1
aI11
aa(lp442
I16
aI86
aasS'368389'
p443
(lp444
(lp445
I1
aI198
aasS'367661'
p446
(lp447
(lp448
I50
aI366
aasS'367662'
p449
(lp450
(lp451
I1
aI18
aasS'367663'
p452
(lp453
(lp454
I1
aI1
aasS'368753'
p455
(lp456
(lp457
I1
aI976
aasS'367271'
p458
(lp459
(lp460
I1
aI135
aasS'367270'
p461
(lp462
(lp463
I1
aI961
aasS'368611'
p464
(lp465
(lp466
I1
aI247
aa(lp467
I249
aI382
aasS'368613'
p468
(lp469
(lp470
I1
aI260
aasS'367062'
p471
(lp472
(lp473
I65
aI77
aasS'367063'
p474
(lp475
(lp476
I1
aI15
aasS'370293'
p477
(lp478
(lp479
I39
aI1618
aasS'370294'
p480
(lp481
(lp482
I1
aI668
aasS'367064'
p483
(lp484
(lp485
I1
aI9
aa(lp486
I32
aI40
aa(lp487
I42
aI55
aa(lp488
I63
aI66
aa(lp489
I70
aI74
aa(lp490
I76
aI95
aa(lp491
I97
aI98
aa(lp492
I100
aI130
aa(lp493
I141
aI166
aa(lp494
I168
aI181
aa(lp495
I184
aI192
aa(lp496
I212
aI240
aa(lp497
I257
aI263
aa(lp498
I301
aI358
aa(lp499
I360
aI362
aa(lp500
I364
aI368
aa(lp501
I370
aI380
aa(lp502
I394
aI403
aa(lp503
I405
aI458
aa(lp504
I461
aI467
aasS'367065'
p505
(lp506
(lp507
I1
aI262
aasS'369998'
p508
(lp509
(lp510
I1
aI179
aasS'369999'
p511
(lp512
(lp513
I1
aI41
aasS'367772'
p514
(lp515
(lp516
I1
aI6
aasS'367770'
p517
(lp518
(lp519
I47
aI198
aasS'367771'
p520
(lp521
(lp522
I1
aI91
aasS'366727'
p523
(lp524
(lp525
I1
aI243
aasS'370300'
p526
(lp527
(lp528
I1
aI962
aasS'367475'
p529
(lp530
(lp531
I56
aI634
aasS'368765'
p532
(lp533
(lp534
I1
aI1386
aasS'367477'
p535
(lp536
(lp537
I1
aI1289
aasS'368609'
p538
(lp539
(lp540
I41
aI1039
aasS'366729'
p541
(lp542
(lp543
I1
aI414
aasS'368318'
p544
(lp545
(lp546
I37
aI319
aasS'368412'
p547
(lp548
(lp549
I1
aI92
aasS'368410'
p550
(lp551
(lp552
I49
aI1501
aasS'368566'
p553
(lp554
(lp555
I1
aI1195
aasS'368567'
p556
(lp557
(lp558
I1
aI31
aa(lp559
I33
aI411
aa(lp560
I414
aI436
aasS'370304'
p561
(lp562
(lp563
I1
aI327
aasS'367070'
p564
(lp565
(lp566
I54
aI55
aa(lp567
I57
aI80
aa(lp568
I82
aI116
aa(lp569
I118
aI122
aa(lp570
I124
aI125
aa(lp571
I209
aI216
aa(lp572
I357
aI363
aasS'366804'
p573
(lp574
(lp575
I1
aI150
aasS'368762'
p576
(lp577
(lp578
I45
aI238
aasS'370144'
p579
(lp580
(lp581
I1
aI715
aa(lp582
I717
aI1329
aasS'367079'
p583
(lp584
(lp585
I36
aI748
aasS'368685'
p586
(lp587
(lp588
I1
aI1481
aasS'368684'
p589
(lp590
(lp591
I40
aI135
aasS'366850'
p592
(lp593
(lp594
I40
aI180
aasS'368388'
p595
(lp596
(lp597
I39
aI444
aa(lp598
I448
aI1431
aa(lp599
I1434
aI1472
aasS'366838'
p600
(lp601
(lp602
I46
aI157
aasS'370436'
p603
(lp604
(lp605
I1
aI31
aasS'366832'
p606
(lp607
(lp608
I1
aI258
aasS'366833'
p609
(lp610
(lp611
I1
aI623
aasS'370580'
p612
(lp613
(lp614
I1
aI2875
aasS'367516'
p615
(lp616
(lp617
I1
aI1236
aasS'368670'
p618
(lp619
(lp620
I1
aI255
aa(lp621
I306
aI308
aasS'367515'
p622
(lp623
(lp624
I44
aI668
aasS'367840'
p625
(lp626
(lp627
I1
aI570
aasS'367355'
p628
(lp629
(lp630
I60
aI63
aasS'368674'
p631
(lp632
(lp633
I1
aI12
aasS'368675'
p634
(lp635
(lp636
I1
aI50
aasS'370321'
p637
(lp638
(lp639
I39
aI52
aasS'369943'
p640
(lp641
(lp642
I1
aI384
aasS'368678'
p643
(lp644
(lp645
I1
aI171
aasS'370753'
p646
(lp647
(lp648
I1
aI249
aasS'368676'
p649
(lp650
(lp651
I1
aI156
aasS'370522'
p652
(lp653
(lp654
I48
aI369
aasS'370725'
p655
(lp656
(lp657
I44
aI392
aa(lp658
I394
aI456
aasS'368400'
p659
(lp660
(lp661
I40
aI271
aasS'369978'
p662
(lp663
(lp664
I31
aI812
aasS'366841'
p665
(lp666
(lp667
I1
aI258
aasS'366840'
p668
(lp669
(lp670
I1
aI180
aasS'370102'
p671
(lp672
(lp673
I1
aI762
aas.